target datalayout = "e-m:e-p270:32:32-p271:32:32-p272:64:64-i64:64-i128:128-f80:128-n8:16:32:64-S128"
target triple = "x86_64-pc-linux-gnu"

%struct.expert_field = type { i32, i32 }

@ei_reload_truncated_field = internal global %struct.expert_field zeroinitializer, align 4
@hf_reload_length_uint32 = internal global i32 0, align 4
@hf_reload_dmflags = internal global i32 0, align 4
@hf_reload_diagnosticrequest = internal global i32 0, align 4
@hf_reload_diagnosticextension = internal global i32 0, align 4
@hf_reload_diagnosticextension_type = internal global i32 0, align 4
@hf_reload_diagnosticextension_contents = internal global i32 0, align 4
@hf_reload_diagnostic_expiration = internal global i32 0, align 4
@hf_reload_diagnosticrequest_timestampinitiated = internal global i32 0, align 4
@hf_reload_diagnosticrequest_extensions = internal global i32 0, align 4
@ett_reload_dmflags = internal global i32 0, align 4
@ett_reload_diagnosticextension = internal global i32 0, align 4
@ett_reload_diagnosticrequest = internal global i32 0, align 4
@ett_reload_diagnosticrequest_extensions = internal global i32 0, align 4
@.str.778 = private unnamed_addr constant [28 x i8] c"Truncated DiagnosticRequest\00", align 1
@.str.779 = private unnamed_addr constant [32 x i8] c"Truncated Diagnostic extensions\00", align 1
@.str.780 = private unnamed_addr constant [27 x i8] c" (DiagnosticExtension<%d>)\00", align 1
@.str.781 = private unnamed_addr constant [15 x i8] c" : %d elements\00", align 1

; Function Attrs: null_pointer_is_valid sspstrong uwtable
define internal i32 @dissect_opaque(ptr noundef %0, ptr noundef %1, ptr noundef %2, i32 noundef %3, i16 noundef zeroext %4, i16 noundef zeroext %5, i32 noundef %6) #0 {
  %8 = alloca ptr, align 8
  %9 = alloca ptr, align 8
  %10 = alloca ptr, align 8
  %11 = alloca i32, align 4
  %12 = alloca i16, align 2
  %13 = alloca i16, align 2
  %14 = alloca i32, align 4
  store ptr %0, ptr %8, align 8
  store ptr %1, ptr %9, align 8
  store ptr %2, ptr %10, align 8
  store i32 %3, ptr %11, align 4
  store i16 %4, ptr %12, align 2
  store i16 %5, ptr %13, align 2
  store i32 %6, ptr %14, align 4
  %15 = load ptr, ptr %8, align 8
  %16 = load ptr, ptr %9, align 8
  %17 = load ptr, ptr %10, align 8
  %18 = load i32, ptr %11, align 4
  %19 = load i16, ptr %12, align 2
  %20 = load i16, ptr %13, align 2
  %21 = load i32, ptr %14, align 4
  %22 = call i32 @dissect_opaque_string_or_data(ptr noundef %15, ptr noundef %16, ptr noundef %17, i32 noundef %18, i16 noundef zeroext %19, i16 noundef zeroext %20, i32 noundef %21, i1 noundef zeroext false)
  ret i32 %22
}

; Function Attrs: null_pointer_is_valid sspstrong uwtable
define internal i32 @dissect_diagnosticextension(ptr noundef %0, ptr noundef %1, ptr noundef %2, i16 noundef zeroext %3, i16 noundef zeroext %4) #0 {
  %6 = alloca ptr, align 8
  %7 = alloca ptr, align 8
  %8 = alloca ptr, align 8
  %9 = alloca i16, align 2
  %10 = alloca i16, align 2
  %11 = alloca ptr, align 8
  %12 = alloca ptr, align 8
  %13 = alloca i16, align 2
  %14 = alloca i16, align 2
  store ptr %0, ptr %6, align 8
  store ptr %1, ptr %7, align 8
  store ptr %2, ptr %8, align 8
  store i16 %3, ptr %9, align 2
  store i16 %4, ptr %10, align 2
  call void @llvm.lifetime.start.p0(i64 8, ptr %11) #8
  call void @llvm.lifetime.start.p0(i64 8, ptr %12) #8
  call void @llvm.lifetime.start.p0(i64 2, ptr %13) #8
  store i16 0, ptr %13, align 2
  call void @llvm.lifetime.start.p0(i64 2, ptr %14) #8
  store i16 0, ptr %14, align 2
  %15 = load ptr, ptr %6, align 8
  %16 = load i16, ptr %9, align 2
  %17 = zext i16 %16 to i32
  %18 = add i32 %17, 2
  %19 = call i32 @tvb_get_ntohl(ptr noundef %15, i32 noundef %18)
  %20 = add i32 6, %19
  %21 = trunc i32 %20 to i16
  store i16 %21, ptr %14, align 2
  %22 = load ptr, ptr %8, align 8
  %23 = load i32, ptr @hf_reload_diagnosticextension, align 4
  %24 = load ptr, ptr %6, align 8
  %25 = load i16, ptr %9, align 2
  %26 = zext i16 %25 to i32
  %27 = load i16, ptr %14, align 2
  %28 = zext i16 %27 to i32
  %29 = call ptr @proto_tree_add_item(ptr noundef %22, i32 noundef %23, ptr noundef %24, i32 noundef %26, i32 noundef %28, i32 noundef 0)
  store ptr %29, ptr %11, align 8
  %30 = load ptr, ptr %11, align 8
  %31 = load i32, ptr @ett_reload_diagnosticextension, align 4
  %32 = call ptr @proto_item_add_subtree(ptr noundef %30, i32 noundef %31)
  store ptr %32, ptr %12, align 8
  %33 = load ptr, ptr %12, align 8
  %34 = load i32, ptr @hf_reload_diagnosticextension_type, align 4
  %35 = load ptr, ptr %6, align 8
  %36 = load i16, ptr %9, align 2
  %37 = zext i16 %36 to i32
  %38 = call ptr @proto_tree_add_item(ptr noundef %33, i32 noundef %34, ptr noundef %35, i32 noundef %37, i32 noundef 2, i32 noundef 0)
  %39 = load i16, ptr %13, align 2
  %40 = zext i16 %39 to i32
  %41 = add i32 %40, 2
  %42 = trunc i32 %41 to i16
  store i16 %42, ptr %13, align 2
  %43 = load ptr, ptr %6, align 8
  %44 = load ptr, ptr %7, align 8
  %45 = load ptr, ptr %12, align 8
  %46 = load i32, ptr @hf_reload_diagnosticextension_contents, align 4
  %47 = load i16, ptr %9, align 2
  %48 = zext i16 %47 to i32
  %49 = load i16, ptr %13, align 2
  %50 = zext i16 %49 to i32
  %51 = add i32 %48, %50
  %52 = trunc i32 %51 to i16
  %53 = load i16, ptr %10, align 2
  %54 = zext i16 %53 to i32
  %55 = sub i32 %54, 2
  %56 = call i32 @dissect_opaque(ptr noundef %43, ptr noundef %44, ptr noundef %45, i32 noundef %46, i16 noundef zeroext %52, i16 noundef zeroext 4, i32 noundef %55)
  %57 = load i16, ptr %13, align 2
  %58 = zext i16 %57 to i32
  %59 = add i32 %58, %56
  %60 = trunc i32 %59 to i16
  store i16 %60, ptr %13, align 2
  %61 = load i16, ptr %13, align 2
  %62 = zext i16 %61 to i32
  call void @llvm.lifetime.end.p0(i64 2, ptr %14) #8
  call void @llvm.lifetime.end.p0(i64 2, ptr %13) #8
  call void @llvm.lifetime.end.p0(i64 8, ptr %12) #8
  call void @llvm.lifetime.end.p0(i64 8, ptr %11) #8
  ret i32 %62
}

; Function Attrs: null_pointer_is_valid sspstrong uwtable
define internal i32 @dissect_dmflag(ptr noundef %0, ptr noundef %1, i16 noundef zeroext %2) #0 {
  %4 = alloca ptr, align 8
  %5 = alloca ptr, align 8
  %6 = alloca i16, align 2
  %7 = alloca ptr, align 8
  %8 = alloca ptr, align 8
  %9 = alloca i32, align 4
  %10 = alloca i32, align 4
  store ptr %0, ptr %4, align 8
  store ptr %1, ptr %5, align 8
  store i16 %2, ptr %6, align 2
  call void @llvm.lifetime.start.p0(i64 8, ptr %7) #8
  call void @llvm.lifetime.start.p0(i64 8, ptr %8) #8
  call void @llvm.lifetime.start.p0(i64 4, ptr %9) #8
  call void @llvm.lifetime.start.p0(i64 4, ptr %10) #8
  %11 = load i16, ptr %6, align 2
  %12 = zext i16 %11 to i32
  %13 = shl i32 %12, 3
  store i32 %13, ptr %10, align 4
  %14 = load ptr, ptr %5, align 8
  %15 = load i32, ptr @hf_reload_dmflags, align 4
  %16 = load ptr, ptr %4, align 8
  %17 = load i16, ptr %6, align 2
  %18 = zext i16 %17 to i32
  %19 = call ptr @proto_tree_add_item(ptr noundef %14, i32 noundef %15, ptr noundef %16, i32 noundef %18, i32 noundef 8, i32 noundef 0)
  store ptr %19, ptr %7, align 8
  %20 = load ptr, ptr %7, align 8
  %21 = load i32, ptr @ett_reload_dmflags, align 4
  %22 = call ptr @proto_item_add_subtree(ptr noundef %20, i32 noundef %21)
  store ptr %22, ptr %8, align 8
  store i32 0, ptr %9, align 4
  br label %23

23:                                               ; preds = %47, %3
  %24 = load i32, ptr %9, align 4
  %25 = zext i32 %24 to i64
  %26 = icmp ult i64 %25, 15
  br i1 %26, label %27, label %50

27:                                               ; preds = %23
  %28 = load i32, ptr %9, align 4
  %29 = zext i32 %28 to i64
  %30 = getelementptr [15 x ptr], ptr @reload_dmflag_items, i64 0, i64 %29
  %31 = load ptr, ptr %30, align 8
  %32 = icmp ne ptr %31, null
  br i1 %32, label %33, label %46

33:                                               ; preds = %27
  %34 = load ptr, ptr %8, align 8
  %35 = load i32, ptr %9, align 4
  %36 = zext i32 %35 to i64
  %37 = getelementptr [15 x ptr], ptr @reload_dmflag_items, i64 0, i64 %36
  %38 = load ptr, ptr %37, align 8
  %39 = load i32, ptr %38, align 4
  %40 = load ptr, ptr %4, align 8
  %41 = load i32, ptr %10, align 4
  %42 = add i32 %41, 63
  %43 = load i32, ptr %9, align 4
  %44 = sub i32 %42, %43
  %45 = call ptr @proto_tree_add_bits_item(ptr noundef %34, i32 noundef %39, ptr noundef %40, i32 noundef %44, i32 noundef 1, i32 noundef 0)
  br label %46

46:                                               ; preds = %33, %27
  br label %47

47:                                               ; preds = %46
  %48 = load i32, ptr %9, align 4
  %49 = add i32 %48, 1
  store i32 %49, ptr %9, align 4
  br label %23, !llvm.loop !36

50:                                               ; preds = %23
  call void @llvm.lifetime.end.p0(i64 4, ptr %10) #8
  call void @llvm.lifetime.end.p0(i64 4, ptr %9) #8
  call void @llvm.lifetime.end.p0(i64 8, ptr %8) #8
  call void @llvm.lifetime.end.p0(i64 8, ptr %7) #8
  ret i32 8
}

; Function Attrs: null_pointer_is_valid sspstrong uwtable
define internal i32 @dissect_diagnosticrequest(i32 noundef %0, ptr noundef %1, ptr noundef %2, ptr noundef %3, i16 noundef zeroext %4, i16 noundef zeroext %5) #0 {
  %7 = alloca i32, align 4
  %8 = alloca ptr, align 8
  %9 = alloca ptr, align 8
  %10 = alloca ptr, align 8
  %11 = alloca i16, align 2
  %12 = alloca i16, align 2
  %13 = alloca ptr, align 8
  %14 = alloca ptr, align 8
  %15 = alloca i16, align 2
  %16 = alloca i32, align 4
  %17 = alloca i32, align 4
  %18 = alloca ptr, align 8
  %19 = alloca ptr, align 8
  %20 = alloca i32, align 4
  %21 = alloca i32, align 4
  %22 = alloca i32, align 4
  %23 = alloca i32, align 4
  %24 = alloca i32, align 4
  store i32 %0, ptr %7, align 4
  store ptr %1, ptr %8, align 8
  store ptr %2, ptr %9, align 8
  store ptr %3, ptr %10, align 8
  store i16 %4, ptr %11, align 2
  store i16 %5, ptr %12, align 2
  call void @llvm.lifetime.start.p0(i64 8, ptr %13) #8
  call void @llvm.lifetime.start.p0(i64 8, ptr %14) #8
  call void @llvm.lifetime.start.p0(i64 2, ptr %15) #8
  store i16 0, ptr %15, align 2
  call void @llvm.lifetime.start.p0(i64 4, ptr %16) #8
  store i32 0, ptr %16, align 4
  call void @llvm.lifetime.start.p0(i64 4, ptr %17) #8
  %25 = load i32, ptr @hf_reload_diagnosticrequest, align 4
  store i32 %25, ptr %17, align 4
  %26 = load i32, ptr %7, align 4
  %27 = icmp sge i32 %26, 0
  br i1 %27, label %28, label %30

28:                                               ; preds = %6
  %29 = load i32, ptr %7, align 4
  store i32 %29, ptr %17, align 4
  br label %30

30:                                               ; preds = %28, %6
  %31 = load ptr, ptr %10, align 8
  %32 = load i32, ptr %17, align 4
  %33 = load ptr, ptr %8, align 8
  %34 = load i16, ptr %11, align 2
  %35 = zext i16 %34 to i32
  %36 = load i16, ptr %12, align 2
  %37 = zext i16 %36 to i32
  %38 = call ptr @proto_tree_add_item(ptr noundef %31, i32 noundef %32, ptr noundef %33, i32 noundef %35, i32 noundef %37, i32 noundef 0)
  store ptr %38, ptr %13, align 8
  %39 = load ptr, ptr %13, align 8
  %40 = load i32, ptr @ett_reload_diagnosticrequest, align 4
  %41 = call ptr @proto_item_add_subtree(ptr noundef %39, i32 noundef %40)
  store ptr %41, ptr %14, align 8
  %42 = load ptr, ptr %14, align 8
  %43 = load i32, ptr @hf_reload_diagnostic_expiration, align 4
  %44 = load ptr, ptr %8, align 8
  %45 = load i16, ptr %11, align 2
  %46 = zext i16 %45 to i32
  %47 = call ptr @proto_tree_add_item(ptr noundef %42, i32 noundef %43, ptr noundef %44, i32 noundef %46, i32 noundef 8, i32 noundef 20)
  %48 = load i16, ptr %15, align 2
  %49 = zext i16 %48 to i32
  %50 = add i32 %49, 8
  %51 = trunc i32 %50 to i16
  store i16 %51, ptr %15, align 2
  %52 = load ptr, ptr %14, align 8
  %53 = load i32, ptr @hf_reload_diagnosticrequest_timestampinitiated, align 4
  %54 = load ptr, ptr %8, align 8
  %55 = load i16, ptr %11, align 2
  %56 = zext i16 %55 to i32
  %57 = load i16, ptr %15, align 2
  %58 = zext i16 %57 to i32
  %59 = add i32 %56, %58
  %60 = call ptr @proto_tree_add_item(ptr noundef %52, i32 noundef %53, ptr noundef %54, i32 noundef %59, i32 noundef 8, i32 noundef 20)
  %61 = load i16, ptr %15, align 2
  %62 = zext i16 %61 to i32
  %63 = add i32 %62, 8
  %64 = trunc i32 %63 to i16
  store i16 %64, ptr %15, align 2
  %65 = load ptr, ptr %8, align 8
  %66 = load ptr, ptr %14, align 8
  %67 = load i16, ptr %11, align 2
  %68 = zext i16 %67 to i32
  %69 = load i16, ptr %15, align 2
  %70 = zext i16 %69 to i32
  %71 = add i32 %68, %70
  %72 = trunc i32 %71 to i16
  %73 = call i32 @dissect_dmflag(ptr noundef %65, ptr noundef %66, i16 noundef zeroext %72)
  %74 = load i16, ptr %15, align 2
  %75 = zext i16 %74 to i32
  %76 = add i32 %75, %73
  %77 = trunc i32 %76 to i16
  store i16 %77, ptr %15, align 2
  %78 = load ptr, ptr %8, align 8
  %79 = load i16, ptr %11, align 2
  %80 = zext i16 %79 to i32
  %81 = load i16, ptr %15, align 2
  %82 = zext i16 %81 to i32
  %83 = add i32 %80, %82
  %84 = call i32 @tvb_get_ntohl(ptr noundef %78, i32 noundef %83)
  store i32 %84, ptr %16, align 4
  %85 = load ptr, ptr %14, align 8
  %86 = load i32, ptr @hf_reload_length_uint32, align 4
  %87 = load ptr, ptr %8, align 8
  %88 = load i16, ptr %11, align 2
  %89 = zext i16 %88 to i32
  %90 = load i16, ptr %15, align 2
  %91 = zext i16 %90 to i32
  %92 = add i32 %89, %91
  %93 = call ptr @proto_tree_add_item(ptr noundef %85, i32 noundef %86, ptr noundef %87, i32 noundef %92, i32 noundef 4, i32 noundef 0)
  %94 = load i16, ptr %15, align 2
  %95 = zext i16 %94 to i32
  %96 = add i32 %95, 4
  %97 = trunc i32 %96 to i16
  store i16 %97, ptr %15, align 2
  %98 = load i16, ptr %15, align 2
  %99 = zext i16 %98 to i32
  %100 = load i32, ptr %16, align 4
  %101 = add i32 %99, %100
  %102 = load i16, ptr %12, align 2
  %103 = zext i16 %102 to i32
  %104 = icmp ugt i32 %101, %103
  br i1 %104, label %105, label %114

105:                                              ; preds = %30
  %106 = load ptr, ptr %9, align 8
  %107 = load ptr, ptr %13, align 8
  %108 = call ptr (ptr, ptr, ptr, ptr, ...) @expert_add_info_format(ptr noundef %106, ptr noundef %107, ptr noundef @ei_reload_truncated_field, ptr noundef @.str.778)
  %109 = load i16, ptr %12, align 2
  %110 = zext i16 %109 to i32
  %111 = load i16, ptr %15, align 2
  %112 = zext i16 %111 to i32
  %113 = sub i32 %110, %112
  store i32 %113, ptr %16, align 4
  br label %114

114:                                              ; preds = %105, %30
  %115 = load i32, ptr %16, align 4
  %116 = icmp ugt i32 %115, 0
  br i1 %116, label %117, label %197

117:                                              ; preds = %114
  call void @llvm.lifetime.start.p0(i64 8, ptr %18) #8
  call void @llvm.lifetime.start.p0(i64 8, ptr %19) #8
  call void @llvm.lifetime.start.p0(i64 4, ptr %20) #8
  store i32 0, ptr %20, align 4
  call void @llvm.lifetime.start.p0(i64 4, ptr %21) #8
  store i32 0, ptr %21, align 4
  call void @llvm.lifetime.start.p0(i64 4, ptr %22) #8
  store i32 0, ptr %22, align 4
  %118 = load ptr, ptr %14, align 8
  %119 = load i32, ptr @hf_reload_diagnosticrequest_extensions, align 4
  %120 = load ptr, ptr %8, align 8
  %121 = load i16, ptr %11, align 2
  %122 = zext i16 %121 to i32
  %123 = load i16, ptr %15, align 2
  %124 = zext i16 %123 to i32
  %125 = add i32 %122, %124
  %126 = load i32, ptr %16, align 4
  %127 = call ptr @proto_tree_add_item(ptr noundef %118, i32 noundef %119, ptr noundef %120, i32 noundef %125, i32 noundef %126, i32 noundef 0)
  store ptr %127, ptr %18, align 8
  %128 = load ptr, ptr %18, align 8
  %129 = load i32, ptr @ett_reload_diagnosticrequest_extensions, align 4
  %130 = call ptr @proto_item_add_subtree(ptr noundef %128, i32 noundef %129)
  store ptr %130, ptr %19, align 8
  %131 = load ptr, ptr %8, align 8
  %132 = load i16, ptr %11, align 2
  %133 = zext i16 %132 to i32
  %134 = load i16, ptr %15, align 2
  %135 = zext i16 %134 to i32
  %136 = add i32 %133, %135
  %137 = call i32 @tvb_get_ntohl(ptr noundef %131, i32 noundef %136)
  store i32 %137, ptr %21, align 4
  %138 = load i32, ptr %21, align 4
  %139 = add i32 %138, 4
  %140 = load i32, ptr %16, align 4
  %141 = icmp ugt i32 %139, %140
  br i1 %141, label %142, label %148

142:                                              ; preds = %117
  %143 = load ptr, ptr %9, align 8
  %144 = load ptr, ptr %18, align 8
  %145 = call ptr (ptr, ptr, ptr, ptr, ...) @expert_add_info_format(ptr noundef %143, ptr noundef %144, ptr noundef @ei_reload_truncated_field, ptr noundef @.str.779)
  %146 = load i32, ptr %16, align 4
  %147 = sub i32 %146, 4
  store i32 %147, ptr %21, align 4
  br label %148

148:                                              ; preds = %142, %117
  %149 = load ptr, ptr %18, align 8
  %150 = load i32, ptr %21, align 4
  call void (ptr, ptr, ...) @proto_item_append_text(ptr noundef %149, ptr noundef @.str.780, i32 noundef %150)
  %151 = load ptr, ptr %19, align 8
  %152 = load i32, ptr @hf_reload_length_uint32, align 4
  %153 = load ptr, ptr %8, align 8
  %154 = load i16, ptr %11, align 2
  %155 = zext i16 %154 to i32
  %156 = load i16, ptr %15, align 2
  %157 = zext i16 %156 to i32
  %158 = add i32 %155, %157
  %159 = call ptr @proto_tree_add_item(ptr noundef %151, i32 noundef %152, ptr noundef %153, i32 noundef %158, i32 noundef 4, i32 noundef 0)
  br label %160

160:                                              ; preds = %193, %148
  %161 = load i32, ptr %20, align 4
  %162 = load i32, ptr %21, align 4
  %163 = icmp ult i32 %161, %162
  br i1 %163, label %164, label %194

164:                                              ; preds = %160
  call void @llvm.lifetime.start.p0(i64 4, ptr %23) #8
  %165 = load ptr, ptr %8, align 8
  %166 = load ptr, ptr %9, align 8
  %167 = load ptr, ptr %19, align 8
  %168 = load i16, ptr %11, align 2
  %169 = zext i16 %168 to i32
  %170 = add i32 %169, 4
  %171 = load i16, ptr %15, align 2
  %172 = zext i16 %171 to i32
  %173 = add i32 %170, %172
  %174 = load i32, ptr %20, align 4
  %175 = add i32 %173, %174
  %176 = trunc i32 %175 to i16
  %177 = load i32, ptr %21, align 4
  %178 = load i32, ptr %20, align 4
  %179 = sub i32 %177, %178
  %180 = trunc i32 %179 to i16
  %181 = call i32 @dissect_diagnosticextension(ptr noundef %165, ptr noundef %166, ptr noundef %167, i16 noundef zeroext %176, i16 noundef zeroext %180)
  store i32 %181, ptr %23, align 4
  %182 = load i32, ptr %23, align 4
  %183 = icmp sle i32 %182, 0
  br i1 %183, label %184, label %185

184:                                              ; preds = %164
  store i32 3, ptr %24, align 4
  br label %191

185:                                              ; preds = %164
  %186 = load i32, ptr %23, align 4
  %187 = load i32, ptr %20, align 4
  %188 = add i32 %187, %186
  store i32 %188, ptr %20, align 4
  %189 = load i32, ptr %22, align 4
  %190 = add i32 %189, 1
  store i32 %190, ptr %22, align 4
  store i32 0, ptr %24, align 4
  br label %191

191:                                              ; preds = %185, %184
  call void @llvm.lifetime.end.p0(i64 4, ptr %23) #8
  %192 = load i32, ptr %24, align 4
  switch i32 %192, label %205 [
    i32 0, label %193
    i32 3, label %194
  ]

193:                                              ; preds = %191
  br label %160, !llvm.loop !22

194:                                              ; preds = %191, %160
  %195 = load ptr, ptr %18, align 8
  %196 = load i32, ptr %22, align 4
  call void (ptr, ptr, ...) @proto_item_append_text(ptr noundef %195, ptr noundef @.str.781, i32 noundef %196)
  call void @llvm.lifetime.end.p0(i64 4, ptr %22) #8
  call void @llvm.lifetime.end.p0(i64 4, ptr %21) #8
  call void @llvm.lifetime.end.p0(i64 4, ptr %20) #8
  call void @llvm.lifetime.end.p0(i64 8, ptr %19) #8
  call void @llvm.lifetime.end.p0(i64 8, ptr %18) #8
  br label %197

197:                                              ; preds = %194, %114
  %198 = load i32, ptr %16, align 4
  %199 = load i16, ptr %15, align 2
  %200 = zext i16 %199 to i32
  %201 = add i32 %200, %198
  %202 = trunc i32 %201 to i16
  store i16 %202, ptr %15, align 2
  %203 = load i16, ptr %15, align 2
  %204 = zext i16 %203 to i32
  store i32 1, ptr %24, align 4
  call void @llvm.lifetime.end.p0(i64 4, ptr %17) #8
  call void @llvm.lifetime.end.p0(i64 4, ptr %16) #8
  call void @llvm.lifetime.end.p0(i64 2, ptr %15) #8
  call void @llvm.lifetime.end.p0(i64 8, ptr %14) #8
  call void @llvm.lifetime.end.p0(i64 8, ptr %13) #8
  ret i32 %204

205:                                              ; preds = %191
  unreachable
}