; Function Attrs: null_pointer_is_valid sspstrong uwtable
define internal fastcc range(i32 0, 65536) i32 @dissect_diagnosticrequest(i32 noundef %0, ptr noundef %1, ptr noundef %2, ptr noundef %3, i16 noundef zeroext %4, i16 noundef zeroext %5) unnamed_addr #0 {
  %7 = load i32, ptr @hf_reload_diagnosticrequest, align 4
  %8 = icmp slt i32 %0, 0
  %spec.select = select i1 %8, i32 %7, i32 %0
  %9 = zext i16 %4 to i32
  %10 = zext i16 %5 to i32
  %11 = tail call ptr @proto_tree_add_item(ptr noundef %3, i32 noundef %spec.select, ptr noundef %1, i32 noundef %9, i32 noundef %10, i32 noundef 0)
  %12 = load i32, ptr @ett_reload_diagnosticrequest, align 4
  %13 = tail call ptr @proto_item_add_subtree(ptr noundef %11, i32 noundef %12)
  %14 = load i32, ptr @hf_reload_diagnostic_expiration, align 4
  %15 = tail call ptr @proto_tree_add_item(ptr noundef %13, i32 noundef %14, ptr noundef %1, i32 noundef %9, i32 noundef 8, i32 noundef 20)
  %16 = load i32, ptr @hf_reload_diagnosticrequest_timestampinitiated, align 4
  %17 = add nuw nsw i32 %9, 8
  %18 = tail call ptr @proto_tree_add_item(ptr noundef %13, i32 noundef %16, ptr noundef %1, i32 noundef %17, i32 noundef 8, i32 noundef 20)
  %19 = add i16 %4, 16
  %20 = zext i16 %19 to i32
  %21 = shl nuw nsw i32 %20, 3
  %22 = load i32, ptr @hf_reload_dmflags, align 4
  %23 = tail call ptr @proto_tree_add_item(ptr noundef %13, i32 noundef %22, ptr noundef %1, i32 noundef %20, i32 noundef 8, i32 noundef 0)
  %24 = load i32, ptr @ett_reload_dmflags, align 4
  %25 = tail call ptr @proto_item_add_subtree(ptr noundef %23, i32 noundef %24)
  %26 = add nuw nsw i32 %21, 63
  br label %27

27:                                               ; preds = %27, %6
  %indvars.iv.i = phi i64 [ 0, %6 ], [ %indvars.iv.next.i, %27 ]
  %28 = getelementptr [15 x ptr], ptr @reload_dmflag_items, i64 0, i64 %indvars.iv.i
  %29 = load ptr, ptr %28, align 8
  %30 = load i32, ptr %29, align 4
  %31 = trunc i64 %indvars.iv.i to i32
  %32 = sub i32 %26, %31
  %33 = tail call ptr @proto_tree_add_bits_item(ptr noundef %25, i32 noundef %30, ptr noundef %1, i32 noundef %32, i32 noundef 1, i32 noundef 0)
  %indvars.iv.next.i = add nuw nsw i64 %indvars.iv.i, 1
  %exitcond.not.i = icmp eq i64 %indvars.iv.next.i, 15
  br i1 %exitcond.not.i, label %dissect_dmflag.exit, label %27, !llvm.loop !13

dissect_dmflag.exit:                              ; preds = %27
  %34 = add nuw nsw i32 %9, 24
  %35 = tail call i32 @tvb_get_ntohl(ptr noundef %1, i32 noundef %34)
  %36 = load i32, ptr @hf_reload_length_uint32, align 4
  %37 = tail call ptr @proto_tree_add_item(ptr noundef %13, i32 noundef %36, ptr noundef %1, i32 noundef %34, i32 noundef 4, i32 noundef 0)
  %38 = add i32 %35, 28
  %39 = icmp ugt i32 %38, %10
  br i1 %39, label %40, label %43

40:                                               ; preds = %dissect_dmflag.exit
  %41 = tail call ptr (ptr, ptr, ptr, ptr, ...) @expert_add_info_format(ptr noundef %2, ptr noundef %11, ptr noundef nonnull @ei_reload_truncated_field, ptr noundef nonnull @.str.778)
  %42 = add nsw i32 %10, -28
  br label %43

43:                                               ; preds = %40, %dissect_dmflag.exit
  %.081 = phi i32 [ %42, %40 ], [ %35, %dissect_dmflag.exit ]
  %.not = icmp eq i32 %.081, 0
  br i1 %.not, label %88, label %44

44:                                               ; preds = %43
  %45 = load i32, ptr @hf_reload_diagnosticrequest_extensions, align 4
  %46 = add nuw nsw i32 %9, 28
  %47 = tail call ptr @proto_tree_add_item(ptr noundef %13, i32 noundef %45, ptr noundef %1, i32 noundef %46, i32 noundef %.081, i32 noundef 0)
  %48 = load i32, ptr @ett_reload_diagnosticrequest_extensions, align 4
  %49 = tail call ptr @proto_item_add_subtree(ptr noundef %47, i32 noundef %48)
  %50 = tail call i32 @tvb_get_ntohl(ptr noundef %1, i32 noundef %46)
  %51 = add i32 %50, 4
  %52 = icmp ugt i32 %51, %.081
  br i1 %52, label %53, label %56

53:                                               ; preds = %44
  %54 = tail call ptr (ptr, ptr, ptr, ptr, ...) @expert_add_info_format(ptr noundef %2, ptr noundef %47, ptr noundef nonnull @ei_reload_truncated_field, ptr noundef nonnull @.str.779)
  %55 = add i32 %.081, -4
  br label %56

56:                                               ; preds = %53, %44
  %.078 = phi i32 [ %55, %53 ], [ %50, %44 ]
  tail call void (ptr, ptr, ...) @proto_item_append_text(ptr noundef %47, ptr noundef nonnull @.str.780, i32 noundef %.078)
  %57 = load i32, ptr @hf_reload_length_uint32, align 4
  %58 = tail call ptr @proto_tree_add_item(ptr noundef %49, i32 noundef %57, ptr noundef %1, i32 noundef %46, i32 noundef 4, i32 noundef 0)
  %59 = add nuw nsw i32 %9, 32
  br label %60

60:                                               ; preds = %62, %56
  %.079 = phi i32 [ 0, %56 ], [ %85, %62 ]
  %.077 = phi i32 [ 0, %56 ], [ %86, %62 ]
  %61 = icmp ult i32 %.079, %.078
  br i1 %61, label %62, label %87

62:                                               ; preds = %60
  %63 = add i32 %59, %.079
  %64 = sub nuw i32 %.078, %.079
  %65 = and i32 %63, 65535
  %66 = add nuw nsw i32 %65, 2
  %67 = tail call i32 @tvb_get_ntohl(ptr noundef %1, i32 noundef %66)
  %68 = add i32 %67, 6
  %69 = load i32, ptr @hf_reload_diagnosticextension, align 4
  %70 = and i32 %68, 65535
  %71 = tail call ptr @proto_tree_add_item(ptr noundef %49, i32 noundef %69, ptr noundef %1, i32 noundef %65, i32 noundef %70, i32 noundef 0)
  %72 = load i32, ptr @ett_reload_diagnosticextension, align 4
  %73 = tail call ptr @proto_item_add_subtree(ptr noundef %71, i32 noundef %72)
  %74 = load i32, ptr @hf_reload_diagnosticextension_type, align 4
  %75 = tail call ptr @proto_tree_add_item(ptr noundef %73, i32 noundef %74, ptr noundef %1, i32 noundef %65, i32 noundef 2, i32 noundef 0)
  %76 = load i32, ptr @hf_reload_diagnosticextension_contents, align 4
  %77 = trunc i32 %66 to i16
  %78 = and i32 %64, 65535
  %79 = add nsw i32 %78, -2
  %80 = tail call fastcc i32 @dissect_opaque_string_or_data(ptr noundef %1, ptr noundef %2, ptr noundef %73, i32 noundef %76, i16 noundef zeroext %77, i16 noundef zeroext 4, i32 noundef %79, i1 noundef zeroext false)
  %81 = add i32 %80, 2
  %82 = and i32 %81, 65535
  %83 = and i32 %80, 65535
  %84 = icmp eq i32 %83, 65534
  %85 = add i32 %82, %.079
  %86 = add i32 %.077, 1
  br i1 %84, label %87, label %60

87:                                               ; preds = %62, %60
  tail call void (ptr, ptr, ...) @proto_item_append_text(ptr noundef %47, ptr noundef nonnull @.str.781, i32 noundef %.077)
  br label %88

88:                                               ; preds = %87, %43
  %89 = add i32 %.081, 28
  %90 = and i32 %89, 65535
  ret i32 %90
}